target datalayout = "e-m:e-p270:32:32-p271:32:32-p272:64:64-i64:64-i128:128-f80:128-n8:16:32:64-S128"
target triple = "x86_64-pc-linux-gnu"

%struct._object = type { %union.anon, ptr }
%union.anon = type { i64 }
%struct.Py_buffer = type { ptr, ptr, i64, i64, i32, i32, ptr, ptr, ptr, ptr, ptr }
%struct.PySocketSockObject = type { %struct._object, i32, i32, i32, i32, ptr, i64, ptr }
%struct.sock_recv = type { ptr, i64, i32, i64 }

@PyExc_ValueError = external global ptr, align 8
@sock_recv_into.kwlist = internal global [4 x ptr] [ptr @.str.607, ptr @.str.608, ptr @.str.84, ptr null], align 16
@.str.609 = private unnamed_addr constant [16 x i8] c"w*|ni:recv_into\00", align 1
@.str.610 = private unnamed_addr constant [33 x i8] c"negative buffersize in recv_into\00", align 1
@.str.611 = private unnamed_addr constant [37 x i8] c"buffer too small for requested bytes\00", align 1

; Function Attrs: nounwind uwtable
define internal i32 @sock_call(ptr noundef %0, i32 noundef %1, ptr noundef %2, ptr noundef %3) #0 {
  %5 = alloca ptr, align 8
  %6 = alloca i32, align 4
  %7 = alloca ptr, align 8
  %8 = alloca ptr, align 8
  store ptr %0, ptr %5, align 8, !tbaa !8
  store i32 %1, ptr %6, align 4, !tbaa !15
  store ptr %2, ptr %7, align 8, !tbaa !8
  store ptr %3, ptr %8, align 8, !tbaa !8
  %9 = load ptr, ptr %5, align 8, !tbaa !8
  %10 = load i32, ptr %6, align 4, !tbaa !15
  %11 = load ptr, ptr %7, align 8, !tbaa !8
  %12 = load ptr, ptr %8, align 8, !tbaa !8
  %13 = load ptr, ptr %5, align 8, !tbaa !8
  %14 = getelementptr inbounds nuw %struct.PySocketSockObject, ptr %13, i32 0, i32 6
  %15 = load i64, ptr %14, align 8, !tbaa !111
  %16 = call i32 @sock_call_ex(ptr noundef %9, i32 noundef %10, ptr noundef %11, ptr noundef %12, i32 noundef 0, ptr noundef null, i64 noundef %15)
  ret i32 %16
}

; Function Attrs: nounwind uwtable
define internal i64 @sock_recv_guts(ptr noundef %0, ptr noundef %1, i64 noundef %2, i32 noundef %3) #0 {
  %5 = alloca i64, align 8
  %6 = alloca ptr, align 8
  %7 = alloca ptr, align 8
  %8 = alloca i64, align 8
  %9 = alloca i32, align 4
  %10 = alloca %struct.sock_recv, align 8
  %11 = alloca i32, align 4
  store ptr %0, ptr %6, align 8, !tbaa !8
  store ptr %1, ptr %7, align 8, !tbaa !24
  store i64 %2, ptr %8, align 8, !tbaa !52
  store i32 %3, ptr %9, align 4, !tbaa !15
  call void @llvm.lifetime.start.p0(i64 32, ptr %10) #10
  %12 = load i64, ptr %8, align 8, !tbaa !52
  %13 = icmp eq i64 %12, 0
  br i1 %13, label %14, label %15

14:                                               ; preds = %4
  store i64 0, ptr %5, align 8
  store i32 1, ptr %11, align 4
  br label %29

15:                                               ; preds = %4
  %16 = load ptr, ptr %7, align 8, !tbaa !24
  %17 = getelementptr inbounds nuw %struct.sock_recv, ptr %10, i32 0, i32 0
  store ptr %16, ptr %17, align 8, !tbaa !265
  %18 = load i64, ptr %8, align 8, !tbaa !52
  %19 = getelementptr inbounds nuw %struct.sock_recv, ptr %10, i32 0, i32 1
  store i64 %18, ptr %19, align 8, !tbaa !267
  %20 = load i32, ptr %9, align 4, !tbaa !15
  %21 = getelementptr inbounds nuw %struct.sock_recv, ptr %10, i32 0, i32 2
  store i32 %20, ptr %21, align 8, !tbaa !268
  %22 = load ptr, ptr %6, align 8, !tbaa !8
  %23 = call i32 @sock_call(ptr noundef %22, i32 noundef 0, ptr noundef @sock_recv_impl, ptr noundef %10)
  %24 = icmp slt i32 %23, 0
  br i1 %24, label %25, label %26

25:                                               ; preds = %15
  store i64 -1, ptr %5, align 8
  store i32 1, ptr %11, align 4
  br label %29

26:                                               ; preds = %15
  %27 = getelementptr inbounds nuw %struct.sock_recv, ptr %10, i32 0, i32 3
  %28 = load i64, ptr %27, align 8, !tbaa !269
  store i64 %28, ptr %5, align 8
  store i32 1, ptr %11, align 4
  br label %29

29:                                               ; preds = %26, %25, %14
  call void @llvm.lifetime.end.p0(i64 32, ptr %10) #10
  %30 = load i64, ptr %5, align 8
  ret i64 %30
}

; Function Attrs: nounwind uwtable
define internal ptr @sock_recv_into(ptr noundef %0, ptr noundef %1, ptr noundef %2) #0 {
  %4 = alloca ptr, align 8
  %5 = alloca ptr, align 8
  %6 = alloca ptr, align 8
  %7 = alloca ptr, align 8
  %8 = alloca ptr, align 8
  %9 = alloca i32, align 4
  %10 = alloca %struct.Py_buffer, align 8
  %11 = alloca ptr, align 8
  %12 = alloca i64, align 8
  %13 = alloca i64, align 8
  %14 = alloca i64, align 8
  %15 = alloca i32, align 4
  store ptr %0, ptr %5, align 8, !tbaa !3
  store ptr %1, ptr %6, align 8, !tbaa !3
  store ptr %2, ptr %7, align 8, !tbaa !3
  call void @llvm.lifetime.start.p0(i64 8, ptr %8) #10
  %16 = load ptr, ptr %5, align 8, !tbaa !3
  store ptr %16, ptr %8, align 8, !tbaa !8
  call void @llvm.lifetime.start.p0(i64 4, ptr %9) #10
  store i32 0, ptr %9, align 4, !tbaa !15
  call void @llvm.lifetime.start.p0(i64 80, ptr %10) #10
  call void @llvm.lifetime.start.p0(i64 8, ptr %11) #10
  call void @llvm.lifetime.start.p0(i64 8, ptr %12) #10
  call void @llvm.lifetime.start.p0(i64 8, ptr %13) #10
  call void @llvm.lifetime.start.p0(i64 8, ptr %14) #10
  store i64 0, ptr %14, align 8, !tbaa !52
  %17 = load ptr, ptr %6, align 8, !tbaa !3
  %18 = load ptr, ptr %7, align 8, !tbaa !3
  %19 = call i32 (ptr, ptr, ptr, ptr, ...) @PyArg_ParseTupleAndKeywords(ptr noundef %17, ptr noundef %18, ptr noundef @.str.609, ptr noundef @sock_recv_into.kwlist, ptr noundef %10, ptr noundef %14, ptr noundef %9)
  %20 = icmp ne i32 %19, 0
  br i1 %20, label %22, label %21

21:                                               ; preds = %3
  store ptr null, ptr %4, align 8
  store i32 1, ptr %15, align 4
  br label %54

22:                                               ; preds = %3
  %23 = getelementptr inbounds nuw %struct.Py_buffer, ptr %10, i32 0, i32 0
  %24 = load ptr, ptr %23, align 8, !tbaa !36
  store ptr %24, ptr %11, align 8, !tbaa !24
  %25 = getelementptr inbounds nuw %struct.Py_buffer, ptr %10, i32 0, i32 2
  %26 = load i64, ptr %25, align 8, !tbaa !39
  store i64 %26, ptr %12, align 8, !tbaa !52
  %27 = load i64, ptr %14, align 8, !tbaa !52
  %28 = icmp slt i64 %27, 0
  br i1 %28, label %29, label %31

29:                                               ; preds = %22
  call void @PyBuffer_Release(ptr noundef %10)
  %30 = load ptr, ptr @PyExc_ValueError, align 8, !tbaa !3
  call void @PyErr_SetString(ptr noundef %30, ptr noundef @.str.610)
  store ptr null, ptr %4, align 8
  store i32 1, ptr %15, align 4
  br label %54

31:                                               ; preds = %22
  %32 = load i64, ptr %14, align 8, !tbaa !52
  %33 = icmp eq i64 %32, 0
  br i1 %33, label %34, label %36

34:                                               ; preds = %31
  %35 = load i64, ptr %12, align 8, !tbaa !52
  store i64 %35, ptr %14, align 8, !tbaa !52
  br label %36

36:                                               ; preds = %34, %31
  %37 = load i64, ptr %12, align 8, !tbaa !52
  %38 = load i64, ptr %14, align 8, !tbaa !52
  %39 = icmp slt i64 %37, %38
  br i1 %39, label %40, label %42

40:                                               ; preds = %36
  call void @PyBuffer_Release(ptr noundef %10)
  %41 = load ptr, ptr @PyExc_ValueError, align 8, !tbaa !3
  call void @PyErr_SetString(ptr noundef %41, ptr noundef @.str.611)
  store ptr null, ptr %4, align 8
  store i32 1, ptr %15, align 4
  br label %54

42:                                               ; preds = %36
  %43 = load ptr, ptr %8, align 8, !tbaa !8
  %44 = load ptr, ptr %11, align 8, !tbaa !24
  %45 = load i64, ptr %14, align 8, !tbaa !52
  %46 = load i32, ptr %9, align 4, !tbaa !15
  %47 = call i64 @sock_recv_guts(ptr noundef %43, ptr noundef %44, i64 noundef %45, i32 noundef %46)
  store i64 %47, ptr %13, align 8, !tbaa !52
  %48 = load i64, ptr %13, align 8, !tbaa !52
  %49 = icmp slt i64 %48, 0
  br i1 %49, label %50, label %51

50:                                               ; preds = %42
  call void @PyBuffer_Release(ptr noundef %10)
  store ptr null, ptr %4, align 8
  store i32 1, ptr %15, align 4
  br label %54

51:                                               ; preds = %42
  call void @PyBuffer_Release(ptr noundef %10)
  %52 = load i64, ptr %13, align 8, !tbaa !52
  %53 = call ptr @PyLong_FromSsize_t(i64 noundef %52)
  store ptr %53, ptr %4, align 8
  store i32 1, ptr %15, align 4
  br label %54

54:                                               ; preds = %51, %50, %40, %29, %21
  call void @llvm.lifetime.end.p0(i64 8, ptr %14) #10
  call void @llvm.lifetime.end.p0(i64 8, ptr %13) #10
  call void @llvm.lifetime.end.p0(i64 8, ptr %12) #10
  call void @llvm.lifetime.end.p0(i64 8, ptr %11) #10
  call void @llvm.lifetime.end.p0(i64 80, ptr %10) #10
  call void @llvm.lifetime.end.p0(i64 4, ptr %9) #10
  call void @llvm.lifetime.end.p0(i64 8, ptr %8) #10
  %55 = load ptr, ptr %4, align 8
  ret ptr %55
}