; Function Attrs: nounwind uwtable
define internal ptr @sock_recv_into(ptr noundef %0, ptr noundef %1, ptr noundef %2) #0 {
  %4 = alloca %struct.sock_recv, align 8
  %5 = alloca i32, align 4
  %6 = alloca %struct.Py_buffer, align 8
  %7 = alloca i64, align 8
  call void @llvm.lifetime.start.p0(i64 4, ptr nonnull %5) #13
  store i32 0, ptr %5, align 4, !tbaa !35
  call void @llvm.lifetime.start.p0(i64 80, ptr nonnull %6) #13
  call void @llvm.lifetime.start.p0(i64 8, ptr nonnull %7) #13
  store i64 0, ptr %7, align 8, !tbaa !47
  %8 = call i32 (ptr, ptr, ptr, ptr, ...) @PyArg_ParseTupleAndKeywords(ptr noundef %1, ptr noundef %2, ptr noundef nonnull @.str.609, ptr noundef nonnull @sock_recv_into.kwlist, ptr noundef nonnull %6, ptr noundef nonnull %7, ptr noundef nonnull %5) #13
  %.not = icmp eq i32 %8, 0
  br i1 %.not, label %42, label %9

9:                                                ; preds = %3
  %10 = load ptr, ptr %6, align 8, !tbaa !27
  %11 = getelementptr inbounds nuw i8, ptr %6, i64 16
  %12 = load i64, ptr %11, align 8, !tbaa !31
  %13 = load i64, ptr %7, align 8, !tbaa !47
  %14 = icmp slt i64 %13, 0
  br i1 %14, label %15, label %17

15:                                               ; preds = %9
  call void @PyBuffer_Release(ptr noundef nonnull %6) #13
  %16 = load ptr, ptr @PyExc_ValueError, align 8, !tbaa !19
  call void @PyErr_SetString(ptr noundef %16, ptr noundef nonnull @.str.610) #13
  br label %42

17:                                               ; preds = %9
  %18 = icmp eq i64 %13, 0
  br i1 %18, label %24, label %19

19:                                               ; preds = %17
  %20 = icmp slt i64 %12, %13
  br i1 %20, label %22, label %.thread16

.thread16:                                        ; preds = %19
  %21 = load i32, ptr %5, align 4, !tbaa !35
  call void @llvm.lifetime.start.p0(i64 32, ptr nonnull %4) #13
  br label %27

22:                                               ; preds = %19
  call void @PyBuffer_Release(ptr noundef nonnull %6) #13
  %23 = load ptr, ptr @PyExc_ValueError, align 8, !tbaa !19
  call void @PyErr_SetString(ptr noundef %23, ptr noundef nonnull @.str.611) #13
  br label %42

24:                                               ; preds = %17
  store i64 %12, ptr %7, align 8, !tbaa !47
  %25 = load i32, ptr %5, align 4, !tbaa !35
  call void @llvm.lifetime.start.p0(i64 32, ptr nonnull %4) #13
  %26 = icmp eq i64 %12, 0
  br i1 %26, label %sock_recv_guts.exit.thread13, label %27

sock_recv_guts.exit.thread13:                     ; preds = %24
  call void @llvm.lifetime.end.p0(i64 32, ptr nonnull %4) #13
  br label %40

27:                                               ; preds = %.thread16, %24
  %28 = phi i32 [ %21, %.thread16 ], [ %25, %24 ]
  %29 = phi i64 [ %13, %.thread16 ], [ %12, %24 ]
  store ptr %10, ptr %4, align 8, !tbaa !139
  %30 = getelementptr inbounds nuw i8, ptr %4, i64 8
  store i64 %29, ptr %30, align 8, !tbaa !141
  %31 = getelementptr inbounds nuw i8, ptr %4, i64 16
  store i32 %28, ptr %31, align 8, !tbaa !142
  %32 = getelementptr inbounds nuw i8, ptr %0, i64 40
  %33 = load i64, ptr %32, align 8, !tbaa !90
  %34 = call fastcc range(i32 -1, 1) i32 @sock_call_ex(ptr noundef %0, i32 noundef 0, ptr noundef nonnull @sock_recv_impl, ptr noundef nonnull %4, i32 noundef 0, ptr noundef null, i64 noundef %33)
  %35 = icmp slt i32 %34, 0
  br i1 %35, label %sock_recv_guts.exit.thread, label %sock_recv_guts.exit

sock_recv_guts.exit.thread:                       ; preds = %27
  call void @llvm.lifetime.end.p0(i64 32, ptr nonnull %4) #13
  br label %39

sock_recv_guts.exit:                              ; preds = %27
  %36 = getelementptr inbounds nuw i8, ptr %4, i64 24
  %37 = load i64, ptr %36, align 8, !tbaa !143
  call void @llvm.lifetime.end.p0(i64 32, ptr nonnull %4) #13
  %38 = icmp slt i64 %37, 0
  br i1 %38, label %39, label %40

39:                                               ; preds = %sock_recv_guts.exit.thread, %sock_recv_guts.exit
  call void @PyBuffer_Release(ptr noundef nonnull %6) #13
  br label %42

40:                                               ; preds = %sock_recv_guts.exit.thread13, %sock_recv_guts.exit
  %.0.i15 = phi i64 [ 0, %sock_recv_guts.exit.thread13 ], [ %37, %sock_recv_guts.exit ]
  call void @PyBuffer_Release(ptr noundef nonnull %6) #13
  %41 = call ptr @PyLong_FromSsize_t(i64 noundef %.0.i15) #13
  br label %42

42:                                               ; preds = %3, %40, %39, %22, %15
  %.0 = phi ptr [ null, %15 ], [ null, %22 ], [ null, %39 ], [ %41, %40 ], [ null, %3 ]
  call void @llvm.lifetime.end.p0(i64 8, ptr nonnull %7) #13
  call void @llvm.lifetime.end.p0(i64 80, ptr nonnull %6) #13
  call void @llvm.lifetime.end.p0(i64 4, ptr nonnull %5) #13
  ret ptr %.0
}